target datalayout = "e-m:e-p270:32:32-p271:32:32-p272:64:64-i64:64-i128:128-f80:128-n8:16:32:64-S128"
target triple = "x86_64-pc-linux-gnu"

%"class.boost::urls::authority_view" = type { ptr, %"struct.boost::urls::detail::url_impl" }
%"struct.boost::urls::detail::url_impl" = type <{ ptr, [8 x i64], [7 x i64], i64, i64, [16 x i8], i16, [2 x i8], i32, i16, i8, [5 x i8] }>
%"class.boost::core::basic_string_view" = type { ptr, i64 }
%"class.boost::urls::pct_string_view" = type { %"class.boost::urls::grammar::string_view_base", i64 }
%"class.boost::urls::grammar::string_view_base" = type { %"class.boost::core::basic_string_view" }

; Function Attrs: mustprogress nounwind uwtable
define linkonce_odr hidden void @_ZN5boost4core17basic_string_viewIcEC2Ev(ptr noundef nonnull align 8 dereferenceable(16) %0) unnamed_addr #2 comdat align 2 {
  %2 = alloca ptr, align 8
  store ptr %0, ptr %2, align 8, !tbaa !7
  %3 = load ptr, ptr %2, align 8
  %4 = getelementptr inbounds nuw %"class.boost::core::basic_string_view", ptr %3, i32 0, i32 0
  store ptr null, ptr %4, align 8, !tbaa !40
  %5 = getelementptr inbounds nuw %"class.boost::core::basic_string_view", ptr %3, i32 0, i32 1
  store i64 0, ptr %5, align 8, !tbaa !38
  ret void
}

; Function Attrs: mustprogress nounwind uwtable
define linkonce_odr hidden void @_ZN5boost4urls7grammar16string_view_baseC2Ev(ptr noundef nonnull align 8 dereferenceable(16) %0) unnamed_addr #2 comdat align 2 {
  %2 = alloca ptr, align 8
  store ptr %0, ptr %2, align 8, !tbaa !7
  %3 = load ptr, ptr %2, align 8
  %4 = getelementptr inbounds nuw %"class.boost::urls::grammar::string_view_base", ptr %3, i32 0, i32 0
  call void @_ZN5boost4core17basic_string_viewIcEC2Ev(ptr noundef nonnull align 8 dereferenceable(16) %4) #19
  ret void
}

; Function Attrs: mustprogress nounwind uwtable
define linkonce_odr hidden void @_ZN5boost4urls15pct_string_viewC2Ev(ptr noundef nonnull align 8 dereferenceable(24) %0) unnamed_addr #2 comdat align 2 {
  %2 = alloca ptr, align 8
  store ptr %0, ptr %2, align 8, !tbaa !7
  %3 = load ptr, ptr %2, align 8
  call void @_ZN5boost4urls7grammar16string_view_baseC2Ev(ptr noundef nonnull align 8 dereferenceable(16) %3) #19
  %4 = getelementptr inbounds nuw %"class.boost::urls::pct_string_view", ptr %3, i32 0, i32 1
  store i64 0, ptr %4, align 8, !tbaa !45
  ret void
}

; Function Attrs: mustprogress nounwind uwtable
define void @_ZNK5boost4urls14authority_view17encoded_host_nameEv(ptr dead_on_unwind noalias writable sret(%"class.boost::urls::pct_string_view") align 8 %0, ptr noundef nonnull align 8 dereferenceable(184) %1) #2 align 2 {
  %3 = alloca ptr, align 8
  store ptr %1, ptr %3, align 8, !tbaa !7
  %4 = load ptr, ptr %3, align 8
  %5 = getelementptr inbounds nuw %"class.boost::urls::authority_view", ptr %4, i32 0, i32 1
  %6 = getelementptr inbounds nuw %"struct.boost::urls::detail::url_impl", ptr %5, i32 0, i32 8
  %7 = load i32, ptr %6, align 4, !tbaa !41
  %8 = icmp ne i32 %7, 1
  br i1 %8, label %9, label %10

9:                                                ; preds = %2
  call void @llvm.memset.p0.i64(ptr align 8 %0, i8 0, i64 24, i1 false)
  call void @_ZN5boost4urls15pct_string_viewC2Ev(ptr noundef nonnull align 8 dereferenceable(24) %0) #19
  br label %12

10:                                               ; preds = %2
  %11 = getelementptr inbounds nuw %"class.boost::urls::authority_view", ptr %4, i32 0, i32 1
  call void @_ZNK5boost4urls6detail8url_impl7pct_getEi(ptr dead_on_unwind writable sret(%"class.boost::urls::pct_string_view") align 8 %0, ptr noundef nonnull align 8 dereferenceable(171) %11, i32 noundef 2) #19
  br label %12

12:                                               ; preds = %10, %9
  ret void
}