; Function Attrs: mustprogress nounwind uwtable
define void @_ZNK5boost4urls14authority_view17encoded_host_nameEv(ptr dead_on_unwind noalias writable sret(%"class.boost::urls::pct_string_view") align 8 %0, ptr noundef nonnull align 8 dereferenceable(184) %1) local_unnamed_addr #3 align 2 {
  %3 = getelementptr inbounds nuw i8, ptr %1, i64 172
  %4 = load i32, ptr %3, align 4, !tbaa !72
  %.not = icmp eq i32 %4, 1
  br i1 %.not, label %6, label %5

5:                                                ; preds = %2
  tail call void @llvm.memset.p0.i64(ptr noundef nonnull align 8 dereferenceable(24) %0, i8 0, i64 24, i1 false)
  br label %8

6:                                                ; preds = %2
  %7 = getelementptr inbounds nuw i8, ptr %1, i64 8
  tail call void @_ZNK5boost4urls6detail8url_impl7pct_getEi(ptr dead_on_unwind writable sret(%"class.boost::urls::pct_string_view") align 8 %0, ptr noundef nonnull align 8 dereferenceable(171) %7, i32 noundef 2) #28
  br label %8

8:                                                ; preds = %6, %5
  ret void
}